; Function Attrs: mustprogress nounwind uwtable
define hidden noundef ptr @_ZNK11PCTableNode5ValueEP8PhaseGVN(ptr noundef nonnull align 8 dereferenceable(56) %0, ptr nocapture noundef readonly %1) unnamed_addr #2 align 2 {
  %3 = getelementptr inbounds i8, ptr %0, i64 8
  %4 = load ptr, ptr %3, align 8
  %5 = load ptr, ptr %4, align 8
  %6 = getelementptr inbounds i8, ptr %1, i64 40
  %7 = load ptr, ptr %6, align 8
  %8 = getelementptr inbounds i8, ptr %5, i64 40
  %9 = load i32, ptr %8, align 8
  %10 = getelementptr inbounds i8, ptr %7, i64 16
  %11 = load ptr, ptr %10, align 8
  %12 = zext i32 %9 to i64
  %13 = getelementptr inbounds ptr, ptr %11, i64 %12
  %14 = load ptr, ptr %13, align 8
  %15 = load ptr, ptr @_ZN4Type7CONTROLE, align 8
  %16 = icmp eq ptr %14, %15
  br i1 %16, label %17, label %22

17:                                               ; preds = %2
  %18 = load ptr, ptr %0, align 8
  %19 = getelementptr inbounds i8, ptr %18, i64 40
  %20 = load ptr, ptr %19, align 8
  %21 = tail call noundef ptr %20(ptr noundef nonnull align 8 dereferenceable(56) %0) #10
  br label %24

22:                                               ; preds = %2
  %23 = load ptr, ptr @_ZN4Type3TOPE, align 8
  br label %24

24:                                               ; preds = %22, %17
  %.0 = phi ptr [ %21, %17 ], [ %23, %22 ]
  ret ptr %.0
}